; Function Attrs: mustprogress nofree norecurse nosync nounwind willreturn memory(argmem: write) uwtable
define void @_ZN3gmx20PmeLoadBalanceHelper18registerNSCallbackEv(ptr dead_on_unwind noalias writable writeonly sret(%"class.std::optional") align 8 captures(none) initializes((0, 33)) %0, ptr noundef nonnull align 8 dereferenceable(88) %1) unnamed_addr #2 align 2 personality ptr @__gxx_personality_v0 {
  %3 = ptrtoint ptr %1 to i64
  %4 = getelementptr inbounds nuw i8, ptr %0, i64 16
  %5 = getelementptr inbounds nuw i8, ptr %0, i64 24
  %6 = getelementptr inbounds nuw i8, ptr %0, i64 8
  store i64 0, ptr %6, align 8
  store i64 %3, ptr %0, align 8, !tbaa !4
  store ptr @"_ZNSt17_Function_handlerIFvldEZN3gmx20PmeLoadBalanceHelper18registerNSCallbackEvE3$_0E9_M_invokeERKSt9_Any_dataOlOd", ptr %5, align 8, !tbaa !9
  store ptr @"_ZNSt17_Function_handlerIFvldEZN3gmx20PmeLoadBalanceHelper18registerNSCallbackEvE3$_0E10_M_managerERSt9_Any_dataRKS5_St18_Manager_operation", ptr %4, align 8, !tbaa !12
  %7 = getelementptr inbounds nuw i8, ptr %0, i64 32
  store i8 1, ptr %7, align 8, !tbaa !13
  ret void
}